; Function Attrs: mustprogress nounwind uwtable
define dso_local noundef zeroext i1 @_ZNK4llvm16TargetSchedModel12mustEndGroupEPKNS_12MachineInstrEPKNS_16MCSchedClassDescE(ptr noundef nonnull align 8 dereferenceable(280) %0, ptr noundef %1, ptr noundef readonly %2) local_unnamed_addr #0 align 2 {
  %4 = load i8, ptr getelementptr inbounds (i8, ptr @_ZL16EnableSchedModel, i64 128), align 8
  %5 = trunc i8 %4 to i1
  %6 = getelementptr inbounds nuw i8, ptr %0, i64 40
  %7 = load ptr, ptr %6, align 8
  %8 = icmp ne ptr %7, null
  %9 = select i1 %5, i1 %8, i1 false
  br i1 %9, label %10, label %38

10:                                               ; preds = %3
  %.not = icmp eq ptr %2, null
  br i1 %.not, label %11, label %._ZNK4llvm16TargetSchedModel17resolveSchedClassEPKNS_12MachineInstrE.exit_crit_edge

._ZNK4llvm16TargetSchedModel17resolveSchedClassEPKNS_12MachineInstrE.exit_crit_edge: ; preds = %10
  %.pre = load i16, ptr %2, align 2
  %.pre9 = and i16 %.pre, 8191
  br label %_ZNK4llvm16TargetSchedModel17resolveSchedClassEPKNS_12MachineInstrE.exit

11:                                               ; preds = %10
  %12 = getelementptr inbounds nuw i8, ptr %1, i64 16
  %13 = load ptr, ptr %12, align 8
  %14 = getelementptr inbounds nuw i8, ptr %13, i64 6
  %15 = load i16, ptr %14, align 2
  %16 = zext i16 %15 to i64
  %17 = getelementptr inbounds %"struct.llvm::MCSchedClassDesc", ptr %7, i64 %16
  %18 = load i16, ptr %17, align 2
  %19 = and i16 %18, 8191
  %cond.i = icmp eq i16 %19, 8190
  br i1 %cond.i, label %.lr.ph.i, label %_ZNK4llvm16TargetSchedModel17resolveSchedClassEPKNS_12MachineInstrE.exit

.lr.ph.i:                                         ; preds = %11
  %20 = zext i16 %15 to i32
  %21 = getelementptr inbounds nuw i8, ptr %0, i64 176
  br label %22

22:                                               ; preds = %22, %.lr.ph.i
  %.01012.i = phi i32 [ %20, %.lr.ph.i ], [ %27, %22 ]
  %23 = load ptr, ptr %21, align 8
  %24 = load ptr, ptr %23, align 8
  %25 = getelementptr inbounds i8, ptr %24, i64 224
  %26 = load ptr, ptr %25, align 8
  %27 = tail call noundef i32 %26(ptr noundef nonnull align 8 dereferenceable(288) %23, i32 noundef %.01012.i, ptr noundef nonnull %1, ptr noundef nonnull %0) #11
  %28 = load ptr, ptr %6, align 8
  %29 = zext i32 %27 to i64
  %30 = getelementptr inbounds %"struct.llvm::MCSchedClassDesc", ptr %28, i64 %29
  %31 = load i16, ptr %30, align 2
  %32 = and i16 %31, 8191
  %33 = icmp eq i16 %32, 8190
  br i1 %33, label %22, label %_ZNK4llvm16TargetSchedModel17resolveSchedClassEPKNS_12MachineInstrE.exit, !llvm.loop !8

_ZNK4llvm16TargetSchedModel17resolveSchedClassEPKNS_12MachineInstrE.exit: ; preds = %22, %._ZNK4llvm16TargetSchedModel17resolveSchedClassEPKNS_12MachineInstrE.exit_crit_edge, %11
  %.pre-phi = phi i16 [ %.pre9, %._ZNK4llvm16TargetSchedModel17resolveSchedClassEPKNS_12MachineInstrE.exit_crit_edge ], [ %19, %11 ], [ %32, %22 ]
  %34 = phi i16 [ %.pre, %._ZNK4llvm16TargetSchedModel17resolveSchedClassEPKNS_12MachineInstrE.exit_crit_edge ], [ %18, %11 ], [ %31, %22 ]
  %.not8 = icmp eq i16 %.pre-phi, 8191
  br i1 %.not8, label %38, label %35

35:                                               ; preds = %_ZNK4llvm16TargetSchedModel17resolveSchedClassEPKNS_12MachineInstrE.exit
  %36 = and i16 %34, 16384
  %37 = icmp ne i16 %36, 0
  br label %38

38:                                               ; preds = %3, %_ZNK4llvm16TargetSchedModel17resolveSchedClassEPKNS_12MachineInstrE.exit, %35
  %.06 = phi i1 [ %37, %35 ], [ false, %_ZNK4llvm16TargetSchedModel17resolveSchedClassEPKNS_12MachineInstrE.exit ], [ false, %3 ]
  ret i1 %.06
}